target datalayout = "e-m:e-p270:32:32-p271:32:32-p272:64:64-i64:64-i128:128-f80:128-n8:16:32:64-S128"
target triple = "x86_64-pc-linux-gnu"

%struct.H5G_loc_t = type { ptr, ptr }
%struct.H5G_loc_native_info_t = type { i32, ptr }

@H5G_init_g = external global i8, align 1
@H5_libterm_g = external global i8, align 1
@.str = private unnamed_addr constant [100 x i8] c"generated/home/dtcxzyw/WorkSpace/Projects/compilers/llvm-opt-benchmark/bench/hdf5/hdf5/src/H5Gloc.c\00", align 1
@H5E_SYM_g = external global i64, align 8
@H5E_NOTFOUND_g = external global i64, align 8
@.str.39 = private unnamed_addr constant [19 x i8] c"name doesn't exist\00", align 1
@H5E_CANTGET_g = external global i64, align 8
@.str.40 = private unnamed_addr constant [22 x i8] c"can't get object info\00", align 1
@__func__.H5G__loc_native_info_cb = private unnamed_addr constant [24 x i8] c"H5G__loc_native_info_cb\00", align 1

; Function Attrs: nounwind uwtable
define internal i32 @H5G__loc_native_info_cb(ptr noundef %0, ptr noundef %1, ptr noundef %2, ptr noundef %3, ptr noundef %4, ptr noundef %5) #0 {
  %7 = alloca ptr, align 8
  %8 = alloca ptr, align 8
  %9 = alloca ptr, align 8
  %10 = alloca ptr, align 8
  %11 = alloca ptr, align 8
  %12 = alloca ptr, align 8
  %13 = alloca ptr, align 8
  %14 = alloca i32, align 4
  %15 = alloca i8, align 1
  store ptr %0, ptr %7, align 8, !tbaa !9
  store ptr %1, ptr %8, align 8, !tbaa !32
  store ptr %2, ptr %9, align 8, !tbaa !37
  store ptr %3, ptr %10, align 8, !tbaa !9
  store ptr %4, ptr %11, align 8, !tbaa !3
  store ptr %5, ptr %12, align 8, !tbaa !39
  call void @llvm.lifetime.start.p0(i64 8, ptr %13) #7
  %16 = load ptr, ptr %11, align 8, !tbaa !3
  store ptr %16, ptr %13, align 8, !tbaa !3
  call void @llvm.lifetime.start.p0(i64 4, ptr %14) #7
  store i32 0, ptr %14, align 4, !tbaa !7
  call void @llvm.lifetime.start.p0(i64 1, ptr %15) #7
  store i8 0, ptr %15, align 1, !tbaa !11
  %17 = load i8, ptr @H5G_init_g, align 1, !tbaa !11, !range !13, !noundef !14
  %18 = trunc i8 %17 to i1
  br i1 %18, label %23, label %19

19:                                               ; preds = %6
  %20 = load i8, ptr @H5_libterm_g, align 1, !tbaa !11, !range !13, !noundef !14
  %21 = trunc i8 %20 to i1
  %22 = xor i1 %21, true
  br label %23

23:                                               ; preds = %19, %6
  %24 = phi i1 [ true, %6 ], [ %22, %19 ]
  %25 = xor i1 %24, true
  %26 = xor i1 %25, true
  %27 = zext i1 %26 to i32
  %28 = sext i32 %27 to i64
  %29 = call i64 @llvm.expect.i64(i64 %28, i64 1)
  %30 = icmp ne i64 %29, 0
  br i1 %30, label %31, label %87

31:                                               ; preds = %23
  %32 = load ptr, ptr %10, align 8, !tbaa !9
  %33 = icmp eq ptr %32, null
  br i1 %33, label %34, label %53

34:                                               ; preds = %31
  br label %35

35:                                               ; preds = %34
  br label %36

36:                                               ; preds = %35
  br label %37

37:                                               ; preds = %36
  %38 = load i64, ptr @H5E_SYM_g, align 8, !tbaa !15
  %39 = load i64, ptr @H5E_NOTFOUND_g, align 8, !tbaa !15
  %40 = call i32 (ptr, ptr, i32, i64, i64, ptr, ...) @H5E_printf_stack(ptr noundef @.str, ptr noundef @__func__.H5G__loc_native_info_cb, i32 noundef 782, i64 noundef %38, i64 noundef %39, ptr noundef @.str.39)
  br label %41

41:                                               ; preds = %37
  br label %42

42:                                               ; preds = %41
  store i8 1, ptr %15, align 1, !tbaa !11
  %43 = load i8, ptr %15, align 1, !tbaa !11, !range !13, !noundef !14
  %44 = trunc i8 %43 to i1
  %45 = zext i1 %44 to i8
  store i8 %45, ptr %15, align 1, !tbaa !11
  br label %46

46:                                               ; preds = %42
  br label %47

47:                                               ; preds = %46
  br label %48

48:                                               ; preds = %47
  store i32 -1, ptr %14, align 4, !tbaa !7
  br label %85

49:                                               ; No predecessors!
  br label %50

50:                                               ; preds = %49
  br label %51

51:                                               ; preds = %50
  br label %52

52:                                               ; preds = %51
  br label %53

53:                                               ; preds = %52, %31
  %54 = load ptr, ptr %10, align 8, !tbaa !9
  %55 = getelementptr inbounds nuw %struct.H5G_loc_t, ptr %54, i32 0, i32 0
  %56 = load ptr, ptr %55, align 8, !tbaa !21
  %57 = load ptr, ptr %13, align 8, !tbaa !3
  %58 = getelementptr inbounds nuw %struct.H5G_loc_native_info_t, ptr %57, i32 0, i32 1
  %59 = load ptr, ptr %58, align 8, !tbaa !67
  %60 = load ptr, ptr %13, align 8, !tbaa !3
  %61 = getelementptr inbounds nuw %struct.H5G_loc_native_info_t, ptr %60, i32 0, i32 0
  %62 = load i32, ptr %61, align 8, !tbaa !65
  %63 = call i32 @H5O_get_native_info(ptr noundef %56, ptr noundef %59, i32 noundef %62)
  %64 = icmp slt i32 %63, 0
  br i1 %64, label %65, label %84

65:                                               ; preds = %53
  br label %66

66:                                               ; preds = %65
  br label %67

67:                                               ; preds = %66
  br label %68

68:                                               ; preds = %67
  %69 = load i64, ptr @H5E_SYM_g, align 8, !tbaa !15
  %70 = load i64, ptr @H5E_CANTGET_g, align 8, !tbaa !15
  %71 = call i32 (ptr, ptr, i32, i64, i64, ptr, ...) @H5E_printf_stack(ptr noundef @.str, ptr noundef @__func__.H5G__loc_native_info_cb, i32 noundef 786, i64 noundef %69, i64 noundef %70, ptr noundef @.str.40)
  br label %72

72:                                               ; preds = %68
  br label %73

73:                                               ; preds = %72
  store i8 1, ptr %15, align 1, !tbaa !11
  %74 = load i8, ptr %15, align 1, !tbaa !11, !range !13, !noundef !14
  %75 = trunc i8 %74 to i1
  %76 = zext i1 %75 to i8
  store i8 %76, ptr %15, align 1, !tbaa !11
  br label %77

77:                                               ; preds = %73
  br label %78

78:                                               ; preds = %77
  br label %79

79:                                               ; preds = %78
  store i32 -1, ptr %14, align 4, !tbaa !7
  br label %85

80:                                               ; No predecessors!
  br label %81

81:                                               ; preds = %80
  br label %82

82:                                               ; preds = %81
  br label %83

83:                                               ; preds = %82
  br label %84

84:                                               ; preds = %83, %53
  br label %85

85:                                               ; preds = %84, %79, %48
  %86 = load ptr, ptr %12, align 8, !tbaa !39
  store i32 0, ptr %86, align 4, !tbaa !7
  br label %87

87:                                               ; preds = %85, %23
  %88 = load i32, ptr %14, align 4, !tbaa !7
  call void @llvm.lifetime.end.p0(i64 1, ptr %15) #7
  call void @llvm.lifetime.end.p0(i64 4, ptr %14) #7
  call void @llvm.lifetime.end.p0(i64 8, ptr %13) #7
  ret i32 %88
}